; Function Attrs: mustprogress nofree norecurse nosync nounwind willreturn memory(read, inaccessiblemem: none) uwtable
define noundef zeroext i1 @_ZNK32pxrInternal_v0_24__pxrReserved__7GfVec4heqERKNS_7GfVec4iE(ptr nocapture noundef nonnull readonly align 2 dereferenceable(8) %0, ptr nocapture noundef nonnull readonly align 4 dereferenceable(16) %1) local_unnamed_addr #2 align 2 {
  %3 = load i16, ptr %0, align 2
  %4 = zext i16 %3 to i64
  %5 = getelementptr inbounds [65536 x %"union.pxrInternal_v0_24__pxrReserved__::pxr_half::half::uif"], ptr @_ZN32pxrInternal_v0_24__pxrReserved__8pxr_half4half8_toFloatE, i64 0, i64 %4
  %6 = load float, ptr %5, align 4
  %7 = load i32, ptr %1, align 4
  %8 = sitofp i32 %7 to float
  %9 = fcmp oeq float %6, %8
  br i1 %9, label %10, label %40

10:                                               ; preds = %2
  %11 = getelementptr inbounds i8, ptr %0, i64 2
  %12 = load i16, ptr %11, align 2
  %13 = zext i16 %12 to i64
  %14 = getelementptr inbounds [65536 x %"union.pxrInternal_v0_24__pxrReserved__::pxr_half::half::uif"], ptr @_ZN32pxrInternal_v0_24__pxrReserved__8pxr_half4half8_toFloatE, i64 0, i64 %13
  %15 = load float, ptr %14, align 4
  %16 = getelementptr inbounds i8, ptr %1, i64 4
  %17 = load i32, ptr %16, align 4
  %18 = sitofp i32 %17 to float
  %19 = fcmp oeq float %15, %18
  br i1 %19, label %20, label %40

20:                                               ; preds = %10
  %21 = getelementptr inbounds i8, ptr %0, i64 4
  %22 = load i16, ptr %21, align 2
  %23 = zext i16 %22 to i64
  %24 = getelementptr inbounds [65536 x %"union.pxrInternal_v0_24__pxrReserved__::pxr_half::half::uif"], ptr @_ZN32pxrInternal_v0_24__pxrReserved__8pxr_half4half8_toFloatE, i64 0, i64 %23
  %25 = load float, ptr %24, align 4
  %26 = getelementptr inbounds i8, ptr %1, i64 8
  %27 = load i32, ptr %26, align 4
  %28 = sitofp i32 %27 to float
  %29 = fcmp oeq float %25, %28
  br i1 %29, label %30, label %40

30:                                               ; preds = %20
  %31 = getelementptr inbounds i8, ptr %0, i64 6
  %32 = load i16, ptr %31, align 2
  %33 = zext i16 %32 to i64
  %34 = getelementptr inbounds [65536 x %"union.pxrInternal_v0_24__pxrReserved__::pxr_half::half::uif"], ptr @_ZN32pxrInternal_v0_24__pxrReserved__8pxr_half4half8_toFloatE, i64 0, i64 %33
  %35 = load float, ptr %34, align 4
  %36 = getelementptr inbounds i8, ptr %1, i64 12
  %37 = load i32, ptr %36, align 4
  %38 = sitofp i32 %37 to float
  %39 = fcmp oeq float %35, %38
  br label %40

40:                                               ; preds = %30, %20, %10, %2
  %41 = phi i1 [ false, %20 ], [ false, %10 ], [ false, %2 ], [ %39, %30 ]
  ret i1 %41
}